; Function Attrs: mustprogress nounwind uwtable
define hidden void @_ZN23java_lang_VirtualThread15compute_offsetsEv() local_unnamed_addr #0 align 2 {
  %1 = load ptr, ptr getelementptr inbounds (i8, ptr @_ZN9vmClasses8_klassesE, i64 304), align 8
  %2 = load ptr, ptr getelementptr inbounds (i8, ptr @_ZN6Symbol11_vm_symbolsE, i64 7080), align 8
  tail call void @_ZN11JavaClasses14compute_offsetERiP13InstanceKlassPKcP6Symbolb(ptr noundef nonnull align 4 dereferenceable(4) @_ZN23java_lang_VirtualThread27static_vthread_scope_offsetE, ptr noundef %1, ptr noundef nonnull @.str.53, ptr noundef %2, i1 noundef zeroext true)
  %3 = load ptr, ptr getelementptr inbounds (i8, ptr @_ZN6Symbol11_vm_symbolsE, i64 7408), align 8
  tail call void @_ZN11JavaClasses14compute_offsetERiP13InstanceKlassPKcP6Symbolb(ptr noundef nonnull align 4 dereferenceable(4) @_ZN23java_lang_VirtualThread21_carrierThread_offsetE, ptr noundef %1, ptr noundef nonnull @.str.54, ptr noundef %3, i1 noundef zeroext false)
  %4 = load ptr, ptr getelementptr inbounds (i8, ptr @_ZN6Symbol11_vm_symbolsE, i64 7072), align 8
  tail call void @_ZN11JavaClasses14compute_offsetERiP13InstanceKlassPKcP6Symbolb(ptr noundef nonnull align 4 dereferenceable(4) @_ZN23java_lang_VirtualThread20_continuation_offsetE, ptr noundef %1, ptr noundef nonnull @.str.41, ptr noundef %4, i1 noundef zeroext false)
  %5 = load ptr, ptr getelementptr inbounds (i8, ptr @_ZN6Symbol11_vm_symbolsE, i64 6992), align 8
  tail call void @_ZN11JavaClasses14compute_offsetERiP13InstanceKlassPKcP6Symbolb(ptr noundef nonnull align 4 dereferenceable(4) @_ZN23java_lang_VirtualThread13_state_offsetE, ptr noundef %1, ptr noundef nonnull @.str.55, ptr noundef %5, i1 noundef zeroext false)
  ret void
}